target datalayout = "e-m:e-p270:32:32-p271:32:32-p272:64:64-i64:64-i128:128-f80:128-n8:16:32:64-S128"
target triple = "x86_64-pc-linux-gnu"

%struct.MP = type { i64, [100 x ptr], %union.anon }
%union.anon = type { %struct.MPMAP }
%struct.MPMAP = type { ptr, i64, i64 }
%struct.FRAG = type { %union.anon.0 }
%union.anon.0 = type { %struct.unaligned_ptr }
%struct.unaligned_ptr = type { ptr }
%struct.alloced = type { i8, i8, i8 }

@.str.10 = private unnamed_addr constant [10 x i8] c"free @%p\0A\00", align 1

; Function Attrs: nounwind uwtable
define internal ptr @allocbase_fromfrag(ptr noundef %0) #0 {
  %2 = alloca ptr, align 8
  store ptr %0, ptr %2, align 8
  %3 = load ptr, ptr %2, align 8
  %4 = load ptr, ptr %2, align 8
  %5 = getelementptr inbounds %struct.FRAG, ptr %4, i32 0, i32 0
  %6 = getelementptr inbounds %struct.alloced, ptr %5, i32 0, i32 0
  %7 = load i8, ptr %6, align 1
  %8 = zext i8 %7 to i32
  %9 = sext i32 %8 to i64
  %10 = sub i64 0, %9
  %11 = getelementptr inbounds i8, ptr %3, i64 %10
  ret ptr %11
}

; Function Attrs: nounwind uwtable
define internal void @spam(ptr noundef %0, ...) #0 {
  %2 = alloca ptr, align 8
  store ptr %0, ptr %2, align 8
  ret void
}

; Function Attrs: nounwind uwtable
define void @mpool_free(ptr noundef %0, ptr noundef %1) #0 {
  %3 = alloca ptr, align 8
  %4 = alloca ptr, align 8
  %5 = alloca ptr, align 8
  %6 = alloca i32, align 4
  store ptr %0, ptr %3, align 8
  store ptr %1, ptr %4, align 8
  store ptr null, ptr %5, align 8
  store i32 0, ptr %6, align 4
  %7 = load ptr, ptr %4, align 8
  %8 = icmp ne ptr %7, null
  br i1 %8, label %10, label %9

9:                                                ; preds = %2
  br label %36

10:                                               ; preds = %2
  %11 = load ptr, ptr %4, align 8
  %12 = getelementptr inbounds i8, ptr %11, i64 -2
  store ptr %12, ptr %5, align 8
  %13 = load ptr, ptr %5, align 8
  call void (ptr, ...) @spam(ptr noundef @.str.10, ptr noundef %13)
  %14 = load ptr, ptr %5, align 8
  %15 = getelementptr inbounds %struct.FRAG, ptr %14, i32 0, i32 0
  %16 = getelementptr inbounds %struct.alloced, ptr %15, i32 0, i32 1
  %17 = load i8, ptr %16, align 1
  %18 = zext i8 %17 to i32
  store i32 %18, ptr %6, align 4
  %19 = load ptr, ptr %5, align 8
  %20 = call ptr @allocbase_fromfrag(ptr noundef %19)
  store ptr %20, ptr %5, align 8
  %21 = load ptr, ptr %3, align 8
  %22 = getelementptr inbounds %struct.MP, ptr %21, i32 0, i32 1
  %23 = load i32, ptr %6, align 4
  %24 = zext i32 %23 to i64
  %25 = getelementptr inbounds [100 x ptr], ptr %22, i64 0, i64 %24
  %26 = load ptr, ptr %25, align 8
  %27 = load ptr, ptr %5, align 8
  %28 = getelementptr inbounds %struct.FRAG, ptr %27, i32 0, i32 0
  %29 = getelementptr inbounds %struct.unaligned_ptr, ptr %28, i32 0, i32 0
  store ptr %26, ptr %29, align 1
  %30 = load ptr, ptr %5, align 8
  %31 = load ptr, ptr %3, align 8
  %32 = getelementptr inbounds %struct.MP, ptr %31, i32 0, i32 1
  %33 = load i32, ptr %6, align 4
  %34 = zext i32 %33 to i64
  %35 = getelementptr inbounds [100 x ptr], ptr %32, i64 0, i64 %34
  store ptr %30, ptr %35, align 8
  br label %36

36:                                               ; preds = %10, %9
  ret void
}