; Function Attrs: mustprogress nofree norecurse nosync nounwind willreturn memory(argmem: readwrite) uwtable
define void @mpool_free(ptr nocapture noundef %0, ptr noundef %1) local_unnamed_addr #6 {
  %.not = icmp eq ptr %1, null
  br i1 %.not, label %15, label %3

3:                                                ; preds = %2
  %4 = getelementptr inbounds i8, ptr %1, i64 -2
  %5 = getelementptr inbounds i8, ptr %1, i64 -1
  %6 = load i8, ptr %5, align 1
  %7 = load i8, ptr %4, align 1
  %8 = zext i8 %7 to i64
  %9 = sub nsw i64 0, %8
  %10 = getelementptr inbounds i8, ptr %4, i64 %9
  %11 = getelementptr inbounds i8, ptr %0, i64 8
  %12 = zext i8 %6 to i64
  %13 = getelementptr inbounds [100 x ptr], ptr %11, i64 0, i64 %12
  %14 = load ptr, ptr %13, align 8
  store ptr %14, ptr %10, align 1
  store ptr %10, ptr %13, align 8
  br label %15

15:                                               ; preds = %2, %3
  ret void
}